; Function Attrs: nounwind uwtable
define hidden void @zif_escapeshellarg(ptr noundef %0, ptr nocapture noundef writeonly %1) local_unnamed_addr #0 {
  %3 = alloca ptr, align 8
  %4 = getelementptr inbounds i8, ptr %0, i64 44
  %5 = load i32, ptr %4, align 4
  %cond = icmp eq i32 %5, 1
  br i1 %cond, label %6, label %.thread85

.thread85:                                        ; preds = %2
  tail call void @zend_wrong_parameters_count_error(i32 noundef 1, i32 noundef 1) #10
  br label %14

6:                                                ; preds = %2
  %7 = getelementptr inbounds i8, ptr %0, i64 80
  %8 = getelementptr inbounds i8, ptr %0, i64 88
  %9 = load i8, ptr %8, align 8
  %10 = icmp eq i8 %9, 6
  br i1 %10, label %.thread, label %12

.thread:                                          ; preds = %6
  %11 = load ptr, ptr %7, align 8
  store ptr %11, ptr %3, align 8
  br label %15

12:                                               ; preds = %6
  %13 = call zeroext i1 @zend_parse_arg_str_slow(ptr noundef nonnull %7, ptr noundef nonnull %3, i32 noundef 1) #10
  br i1 %13, label %._crit_edge, label %14

._crit_edge:                                      ; preds = %12
  %.pre = load ptr, ptr %3, align 8
  br label %15

14:                                               ; preds = %12, %.thread85
  %.06696 = phi i32 [ 1, %.thread85 ], [ 9, %12 ]
  %.06795 = phi i32 [ 0, %.thread85 ], [ 1, %12 ]
  %.06894 = phi ptr [ null, %.thread85 ], [ %7, %12 ]
  %.06993 = phi i32 [ 0, %.thread85 ], [ 4, %12 ]
  call void @zend_wrong_parameter_error(i32 noundef %.06696, i32 noundef %.06795, ptr noundef null, i32 noundef %.06993, ptr noundef %.06894) #10
  br label %31

15:                                               ; preds = %._crit_edge, %.thread
  %16 = phi ptr [ %.pre, %._crit_edge ], [ %11, %.thread ]
  %17 = getelementptr inbounds i8, ptr %16, i64 16
  %18 = load i64, ptr %17, align 8
  %19 = getelementptr inbounds i8, ptr %16, i64 24
  %20 = call i64 @strlen(ptr noundef nonnull dereferenceable(1) %19) #14
  %.not78 = icmp eq i64 %18, %20
  br i1 %.not78, label %24, label %21

21:                                               ; preds = %15
  call void (i32, ptr, ...) @zend_argument_value_error(i32 noundef 1, ptr noundef nonnull @.str.7) #10
  %22 = load ptr, ptr getelementptr inbounds (%struct._zend_executor_globals, ptr @executor_globals, i64 0, i32 50), align 8
  %23 = icmp ne ptr %22, null
  call void @llvm.assume(i1 %23)
  br label %31

24:                                               ; preds = %15
  %25 = call ptr @php_escape_shell_arg(ptr noundef nonnull %19)
  store ptr %25, ptr %1, align 8
  %26 = getelementptr inbounds i8, ptr %25, i64 4
  %27 = load i32, ptr %26, align 4
  %28 = and i32 %27, 64
  %.not79 = icmp eq i32 %28, 0
  %29 = select i1 %.not79, i32 262, i32 6
  %30 = getelementptr inbounds i8, ptr %1, i64 8
  store i32 %29, ptr %30, align 8
  br label %31

31:                                               ; preds = %24, %21, %14
  ret void
}